target datalayout = "e-m:e-p270:32:32-p271:32:32-p272:64:64-i64:64-i128:128-f80:128-n8:16:32:64-S128"
target triple = "x86_64-pc-linux-gnu"

%struct.ARKodeMemRec = type { ptr, double, ptr, i32, i32, double, double, ptr, i32, double, ptr, i32, i32, ptr, ptr, i32, ptr, ptr, i32, ptr, ptr, ptr, ptr, ptr, ptr, ptr, ptr, ptr, ptr, ptr, ptr, ptr, ptr, ptr, i32, ptr, ptr, i32, ptr, i32, ptr, ptr, ptr, ptr, ptr, ptr, ptr, ptr, ptr, ptr, ptr, ptr, ptr, ptr, ptr, ptr, ptr, ptr, ptr, ptr, ptr, ptr, ptr, ptr, ptr, ptr, i32, ptr, ptr, ptr, ptr, ptr, ptr, ptr, i32, ptr, ptr, ptr, i32, ptr, ptr, ptr, ptr, ptr, ptr, ptr, i32, i32, i32, i32, double, double, double, double, double, double, double, double, double, double, i32, ptr, i64, i32, i32, i32, i32, i64, i64, i32, i64, i64, i64, i64, i64, i64, i64, double, double, double, double, double, i32, double, double, i32, i32, i32, i32, i32, i32, i32, i32, ptr, i32, ptr, ptr, ptr, ptr, i32, i32, i32 }
%struct.ARKBBDPrecDataRec = type { i64, i64, i64, i64, double, ptr, ptr, ptr, ptr, ptr, ptr, ptr, ptr, ptr, ptr, i64, i64, i64, i64, ptr }
%struct.ARKLsMemRec = type { i32, i32, i32, ptr, ptr, i32, i32, double, double, ptr, ptr, ptr, ptr, ptr, ptr, ptr, i64, double, i64, i64, i64, i64, i64, i64, i64, i64, i64, double, ptr, ptr, ptr, ptr, i32, ptr, ptr, ptr, ptr, i32, ptr, ptr, i32 }

@.str = private unnamed_addr constant [122 x i8] c"generated/home/dtcxzyw/WorkSpace/Projects/compilers/llvm-opt-benchmark/bench/sundials/sundials/src/arkode/arkode_bbdpre.c\00", align 1
@__func__.ARKBBDPrecReInit = private unnamed_addr constant [17 x i8] c"ARKBBDPrecReInit\00", align 1
@.str.4 = private unnamed_addr constant [65 x i8] c"BBD peconditioner memory is NULL. ARKBBDPrecInit must be called.\00", align 1

; Function Attrs: nounwind uwtable
define i32 @ARKBBDPrecReInit(ptr noundef %0, i64 noundef %1, i64 noundef %2, double noundef %3) #0 {
  %5 = alloca i32, align 4
  %6 = alloca ptr, align 8
  %7 = alloca i64, align 8
  %8 = alloca i64, align 8
  %9 = alloca double, align 8
  %10 = alloca ptr, align 8
  %11 = alloca ptr, align 8
  %12 = alloca ptr, align 8
  %13 = alloca i64, align 8
  %14 = alloca i32, align 4
  %15 = alloca i32, align 4
  store ptr %0, ptr %6, align 8, !tbaa !3
  store i64 %1, ptr %7, align 8, !tbaa !7
  store i64 %2, ptr %8, align 8, !tbaa !7
  store double %3, ptr %9, align 8, !tbaa !9
  call void @llvm.lifetime.start.p0(i64 8, ptr %10) #6
  call void @llvm.lifetime.start.p0(i64 8, ptr %11) #6
  call void @llvm.lifetime.start.p0(i64 8, ptr %12) #6
  call void @llvm.lifetime.start.p0(i64 8, ptr %13) #6
  call void @llvm.lifetime.start.p0(i64 4, ptr %14) #6
  %16 = load ptr, ptr %6, align 8, !tbaa !3
  %17 = call i32 @arkLs_AccessARKODELMem(ptr noundef %16, ptr noundef @__func__.ARKBBDPrecReInit, ptr noundef %10, ptr noundef %11)
  store i32 %17, ptr %14, align 4, !tbaa !11
  %18 = load i32, ptr %14, align 4, !tbaa !11
  %19 = icmp ne i32 %18, 0
  br i1 %19, label %20, label %22

20:                                               ; preds = %4
  %21 = load i32, ptr %14, align 4, !tbaa !11
  store i32 %21, ptr %5, align 4
  store i32 1, ptr %15, align 4
  br label %109

22:                                               ; preds = %4
  %23 = load ptr, ptr %11, align 8, !tbaa !66
  %24 = getelementptr inbounds nuw %struct.ARKLsMemRec, ptr %23, i32 0, i32 31
  %25 = load ptr, ptr %24, align 8, !tbaa !70
  %26 = icmp eq ptr %25, null
  br i1 %26, label %27, label %29

27:                                               ; preds = %22
  %28 = load ptr, ptr %10, align 8, !tbaa !13
  call void (ptr, i32, i32, ptr, ptr, ptr, ...) @arkProcessError(ptr noundef %28, i32 noundef -5, i32 noundef 307, ptr noundef @__func__.ARKBBDPrecReInit, ptr noundef @.str, ptr noundef @.str.4)
  store i32 -5, ptr %5, align 4
  store i32 1, ptr %15, align 4
  br label %109

29:                                               ; preds = %22
  %30 = load ptr, ptr %11, align 8, !tbaa !66
  %31 = getelementptr inbounds nuw %struct.ARKLsMemRec, ptr %30, i32 0, i32 31
  %32 = load ptr, ptr %31, align 8, !tbaa !70
  store ptr %32, ptr %12, align 8, !tbaa !28
  %33 = load ptr, ptr %12, align 8, !tbaa !28
  %34 = getelementptr inbounds nuw %struct.ARKBBDPrecDataRec, ptr %33, i32 0, i32 15
  %35 = load i64, ptr %34, align 8, !tbaa !51
  store i64 %35, ptr %13, align 8, !tbaa !7
  %36 = load i64, ptr %13, align 8, !tbaa !7
  %37 = sub nsw i64 %36, 1
  %38 = load i64, ptr %7, align 8, !tbaa !7
  %39 = icmp sgt i64 0, %38
  br i1 %39, label %40, label %41

40:                                               ; preds = %29
  br label %43

41:                                               ; preds = %29
  %42 = load i64, ptr %7, align 8, !tbaa !7
  br label %43

43:                                               ; preds = %41, %40
  %44 = phi i64 [ 0, %40 ], [ %42, %41 ]
  %45 = icmp slt i64 %37, %44
  br i1 %45, label %46, label %49

46:                                               ; preds = %43
  %47 = load i64, ptr %13, align 8, !tbaa !7
  %48 = sub nsw i64 %47, 1
  br label %57

49:                                               ; preds = %43
  %50 = load i64, ptr %7, align 8, !tbaa !7
  %51 = icmp sgt i64 0, %50
  br i1 %51, label %52, label %53

52:                                               ; preds = %49
  br label %55

53:                                               ; preds = %49
  %54 = load i64, ptr %7, align 8, !tbaa !7
  br label %55

55:                                               ; preds = %53, %52
  %56 = phi i64 [ 0, %52 ], [ %54, %53 ]
  br label %57

57:                                               ; preds = %55, %46
  %58 = phi i64 [ %48, %46 ], [ %56, %55 ]
  %59 = load ptr, ptr %12, align 8, !tbaa !28
  %60 = getelementptr inbounds nuw %struct.ARKBBDPrecDataRec, ptr %59, i32 0, i32 0
  store i64 %58, ptr %60, align 8, !tbaa !36
  %61 = load i64, ptr %13, align 8, !tbaa !7
  %62 = sub nsw i64 %61, 1
  %63 = load i64, ptr %8, align 8, !tbaa !7
  %64 = icmp sgt i64 0, %63
  br i1 %64, label %65, label %66

65:                                               ; preds = %57
  br label %68

66:                                               ; preds = %57
  %67 = load i64, ptr %8, align 8, !tbaa !7
  br label %68

68:                                               ; preds = %66, %65
  %69 = phi i64 [ 0, %65 ], [ %67, %66 ]
  %70 = icmp slt i64 %62, %69
  br i1 %70, label %71, label %74

71:                                               ; preds = %68
  %72 = load i64, ptr %13, align 8, !tbaa !7
  %73 = sub nsw i64 %72, 1
  br label %82

74:                                               ; preds = %68
  %75 = load i64, ptr %8, align 8, !tbaa !7
  %76 = icmp sgt i64 0, %75
  br i1 %76, label %77, label %78

77:                                               ; preds = %74
  br label %80

78:                                               ; preds = %74
  %79 = load i64, ptr %8, align 8, !tbaa !7
  br label %80

80:                                               ; preds = %78, %77
  %81 = phi i64 [ 0, %77 ], [ %79, %78 ]
  br label %82

82:                                               ; preds = %80, %71
  %83 = phi i64 [ %73, %71 ], [ %81, %80 ]
  %84 = load ptr, ptr %12, align 8, !tbaa !28
  %85 = getelementptr inbounds nuw %struct.ARKBBDPrecDataRec, ptr %84, i32 0, i32 1
  store i64 %83, ptr %85, align 8, !tbaa !37
  %86 = load double, ptr %9, align 8, !tbaa !9
  %87 = fcmp ogt double %86, 0.000000e+00
  br i1 %87, label %88, label %90

88:                                               ; preds = %82
  %89 = load double, ptr %9, align 8, !tbaa !9
  br label %103

90:                                               ; preds = %82
  %91 = load ptr, ptr %10, align 8, !tbaa !13
  %92 = getelementptr inbounds nuw %struct.ARKodeMemRec, ptr %91, i32 0, i32 1
  %93 = load double, ptr %92, align 8, !tbaa !49
  %94 = fcmp ole double %93, 0.000000e+00
  br i1 %94, label %95, label %96

95:                                               ; preds = %90
  br label %101

96:                                               ; preds = %90
  %97 = load ptr, ptr %10, align 8, !tbaa !13
  %98 = getelementptr inbounds nuw %struct.ARKodeMemRec, ptr %97, i32 0, i32 1
  %99 = load double, ptr %98, align 8, !tbaa !49
  %100 = call double @sqrt(double noundef %99) #6, !tbaa !11
  br label %101

101:                                              ; preds = %96, %95
  %102 = phi double [ 0.000000e+00, %95 ], [ %100, %96 ]
  br label %103

103:                                              ; preds = %101, %88
  %104 = phi double [ %89, %88 ], [ %102, %101 ]
  %105 = load ptr, ptr %12, align 8, !tbaa !28
  %106 = getelementptr inbounds nuw %struct.ARKBBDPrecDataRec, ptr %105, i32 0, i32 4
  store double %104, ptr %106, align 8, !tbaa !50
  %107 = load ptr, ptr %12, align 8, !tbaa !28
  %108 = getelementptr inbounds nuw %struct.ARKBBDPrecDataRec, ptr %107, i32 0, i32 18
  store i64 0, ptr %108, align 8, !tbaa !65
  store i32 0, ptr %5, align 4
  store i32 1, ptr %15, align 4
  br label %109

109:                                              ; preds = %103, %27, %20
  call void @llvm.lifetime.end.p0(i64 4, ptr %14) #6
  call void @llvm.lifetime.end.p0(i64 8, ptr %13) #6
  call void @llvm.lifetime.end.p0(i64 8, ptr %12) #6
  call void @llvm.lifetime.end.p0(i64 8, ptr %11) #6
  call void @llvm.lifetime.end.p0(i64 8, ptr %10) #6
  %110 = load i32, ptr %5, align 4
  ret i32 %110
}