; Function Attrs: nounwind uwtable
define i32 @ARKBBDPrecReInit(ptr noundef %0, i64 noundef %1, i64 noundef %2, double noundef %3) local_unnamed_addr #0 {
  %5 = alloca ptr, align 8
  %6 = alloca ptr, align 8
  call void @llvm.lifetime.start.p0(i64 8, ptr nonnull %5) #9
  call void @llvm.lifetime.start.p0(i64 8, ptr nonnull %6) #9
  %7 = call i32 @arkLs_AccessARKODELMem(ptr noundef %0, ptr noundef nonnull @__func__.ARKBBDPrecReInit, ptr noundef nonnull %5, ptr noundef nonnull %6) #9
  %.not = icmp eq i32 %7, 0
  br i1 %.not, label %8, label %35

8:                                                ; preds = %4
  %9 = load ptr, ptr %6, align 8, !tbaa !62
  %10 = getelementptr inbounds nuw i8, ptr %9, i64 232
  %11 = load ptr, ptr %10, align 8, !tbaa !66
  %12 = icmp eq ptr %11, null
  br i1 %12, label %13, label %15

13:                                               ; preds = %8
  %14 = load ptr, ptr %5, align 8, !tbaa !3
  call void (ptr, i32, i32, ptr, ptr, ptr, ...) @arkProcessError(ptr noundef %14, i32 noundef -5, i32 noundef 307, ptr noundef nonnull @__func__.ARKBBDPrecReInit, ptr noundef nonnull @.str, ptr noundef nonnull @.str.4) #9
  br label %35

15:                                               ; preds = %8
  %16 = getelementptr inbounds nuw i8, ptr %11, i64 120
  %17 = load i64, ptr %16, align 8, !tbaa !46
  %18 = add nsw i64 %17, -1
  %19 = call i64 @llvm.smax.i64(i64 %1, i64 0)
  %.not29 = icmp sgt i64 %17, %19
  %. = select i1 %.not29, i64 %19, i64 %18
  store i64 %., ptr %11, align 8, !tbaa !30
  %20 = call i64 @llvm.smax.i64(i64 %2, i64 0)
  %.not30 = icmp sgt i64 %17, %20
  %21 = select i1 %.not30, i64 %20, i64 %18
  %22 = getelementptr inbounds nuw i8, ptr %11, i64 8
  store i64 %21, ptr %22, align 8, !tbaa !31
  %23 = fcmp ogt double %3, 0.000000e+00
  br i1 %23, label %31, label %24

24:                                               ; preds = %15
  %25 = load ptr, ptr %5, align 8, !tbaa !3
  %26 = getelementptr inbounds nuw i8, ptr %25, i64 8
  %27 = load double, ptr %26, align 8, !tbaa !43
  %28 = fcmp ugt double %27, 0.000000e+00
  br i1 %28, label %29, label %31

29:                                               ; preds = %24
  %30 = call double @sqrt(double noundef %27) #9, !tbaa !44
  br label %31

31:                                               ; preds = %15, %29, %24
  %32 = phi double [ %30, %29 ], [ 0.000000e+00, %24 ], [ %3, %15 ]
  %33 = getelementptr inbounds nuw i8, ptr %11, i64 32
  store double %32, ptr %33, align 8, !tbaa !45
  %34 = getelementptr inbounds nuw i8, ptr %11, i64 144
  store i64 0, ptr %34, align 8, !tbaa !61
  br label %35

35:                                               ; preds = %4, %31, %13
  %.0 = phi i32 [ -5, %13 ], [ 0, %31 ], [ %7, %4 ]
  call void @llvm.lifetime.end.p0(i64 8, ptr nonnull %6) #9
  call void @llvm.lifetime.end.p0(i64 8, ptr nonnull %5) #9
  ret i32 %.0
}